target datalayout = "e-m:e-p270:32:32-p271:32:32-p272:64:64-i64:64-i128:128-f80:128-n8:16:32:64-S128"
target triple = "x86_64-pc-linux-gnu"

@hf_sbus_data_rtc = internal global i32 0, align 4
@hf_sbus_data_iof = internal global i32 0, align 4
@ett_sbus_data = internal global i32 0, align 4
@.str.382 = private unnamed_addr constant [5 x i8] c"Data\00", align 1
@.str.440 = private unnamed_addr constant [18 x i8] c"Binary data: %08u\00", align 1

; Function Attrs: null_pointer_is_valid sspstrong uwtable
define internal i32 @add_media_response_to_tree(i32 noundef %0, i32 noundef %1, ptr noundef %2, ptr noundef %3, i32 noundef %4) #0 {
  %6 = alloca i32, align 4
  %7 = alloca i32, align 4
  %8 = alloca ptr, align 8
  %9 = alloca ptr, align 8
  %10 = alloca i32, align 4
  %11 = alloca i32, align 4
  %12 = alloca i32, align 4
  %13 = alloca ptr, align 8
  %14 = alloca i32, align 4
  %15 = alloca i32, align 4
  %16 = alloca i32, align 4
  %17 = alloca i32, align 4
  store i32 %0, ptr %6, align 4
  store i32 %1, ptr %7, align 4
  store ptr %2, ptr %8, align 8
  store ptr %3, ptr %9, align 8
  store i32 %4, ptr %10, align 4
  call void @llvm.lifetime.start.p0(i64 4, ptr %11) #6
  call void @llvm.lifetime.start.p0(i64 4, ptr %12) #6
  call void @llvm.lifetime.start.p0(i64 8, ptr %13) #6
  call void @llvm.lifetime.start.p0(i64 4, ptr %14) #6
  call void @llvm.lifetime.start.p0(i64 4, ptr %15) #6
  call void @llvm.lifetime.start.p0(i64 4, ptr %16) #6
  call void @llvm.lifetime.start.p0(i64 4, ptr %17) #6
  %18 = load i32, ptr %6, align 4
  switch i32 %18, label %97 [
    i32 0, label %19
    i32 6, label %19
    i32 7, label %19
    i32 30, label %19
    i32 31, label %19
    i32 161, label %19
    i32 150, label %19
    i32 2, label %43
    i32 3, label %43
    i32 5, label %43
  ]

19:                                               ; preds = %5, %5, %5, %5, %5, %5, %5
  %20 = load ptr, ptr %9, align 8
  %21 = load ptr, ptr %8, align 8
  %22 = load i32, ptr %10, align 4
  %23 = load i32, ptr %7, align 4
  %24 = mul i32 %23, 4
  %25 = load i32, ptr @ett_sbus_data, align 4
  %26 = call ptr @proto_tree_add_subtree(ptr noundef %20, ptr noundef %21, i32 noundef %22, i32 noundef %24, i32 noundef %25, ptr noundef null, ptr noundef @.str.382)
  store ptr %26, ptr %13, align 8
  %27 = load i32, ptr %7, align 4
  store i32 %27, ptr %11, align 4
  br label %28

28:                                               ; preds = %39, %19
  %29 = load i32, ptr %11, align 4
  %30 = icmp sgt i32 %29, 0
  br i1 %30, label %31, label %42

31:                                               ; preds = %28
  %32 = load ptr, ptr %13, align 8
  %33 = load i32, ptr @hf_sbus_data_rtc, align 4
  %34 = load ptr, ptr %8, align 8
  %35 = load i32, ptr %10, align 4
  %36 = call ptr @proto_tree_add_item(ptr noundef %32, i32 noundef %33, ptr noundef %34, i32 noundef %35, i32 noundef 4, i32 noundef 0)
  %37 = load i32, ptr %10, align 4
  %38 = add i32 %37, 4
  store i32 %38, ptr %10, align 4
  br label %39

39:                                               ; preds = %31
  %40 = load i32, ptr %11, align 4
  %41 = add i32 %40, -1
  store i32 %41, ptr %11, align 4
  br label %28, !llvm.loop !27

42:                                               ; preds = %28
  br label %97

43:                                               ; preds = %5, %5, %5
  %44 = load ptr, ptr %9, align 8
  %45 = load ptr, ptr %8, align 8
  %46 = load i32, ptr %10, align 4
  %47 = load i32, ptr %7, align 4
  %48 = add i32 %47, 7
  %49 = sdiv i32 %48, 8
  %50 = load i32, ptr @ett_sbus_data, align 4
  %51 = call ptr @proto_tree_add_subtree(ptr noundef %44, ptr noundef %45, i32 noundef %46, i32 noundef %49, i32 noundef %50, ptr noundef null, ptr noundef @.str.382)
  store ptr %51, ptr %13, align 8
  %52 = load i32, ptr %7, align 4
  %53 = add i32 %52, 7
  %54 = sdiv i32 %53, 8
  store i32 %54, ptr %11, align 4
  br label %55

55:                                               ; preds = %93, %43
  %56 = load i32, ptr %11, align 4
  %57 = icmp sgt i32 %56, 0
  br i1 %57, label %58, label %96

58:                                               ; preds = %55
  store i32 1, ptr %17, align 4
  store i32 0, ptr %16, align 4
  store i32 1, ptr %15, align 4
  %59 = load ptr, ptr %8, align 8
  %60 = load i32, ptr %10, align 4
  %61 = call zeroext i8 @tvb_get_uint8(ptr noundef %59, i32 noundef %60)
  %62 = zext i8 %61 to i32
  store i32 %62, ptr %14, align 4
  store i32 0, ptr %12, align 4
  br label %63

63:                                               ; preds = %80, %58
  %64 = load i32, ptr %12, align 4
  %65 = icmp slt i32 %64, 8
  br i1 %65, label %66, label %83

66:                                               ; preds = %63
  %67 = load i32, ptr %15, align 4
  %68 = load i32, ptr %14, align 4
  %69 = and i32 %67, %68
  %70 = icmp ne i32 %69, 0
  br i1 %70, label %71, label %75

71:                                               ; preds = %66
  %72 = load i32, ptr %16, align 4
  %73 = load i32, ptr %17, align 4
  %74 = add i32 %72, %73
  store i32 %74, ptr %16, align 4
  br label %75

75:                                               ; preds = %71, %66
  %76 = load i32, ptr %15, align 4
  %77 = shl i32 %76, 1
  store i32 %77, ptr %15, align 4
  %78 = load i32, ptr %17, align 4
  %79 = mul i32 10, %78
  store i32 %79, ptr %17, align 4
  br label %80

80:                                               ; preds = %75
  %81 = load i32, ptr %12, align 4
  %82 = add i32 %81, 1
  store i32 %82, ptr %12, align 4
  br label %63, !llvm.loop !28

83:                                               ; preds = %63
  %84 = load ptr, ptr %13, align 8
  %85 = load i32, ptr @hf_sbus_data_iof, align 4
  %86 = load ptr, ptr %8, align 8
  %87 = load i32, ptr %10, align 4
  %88 = load i32, ptr %16, align 4
  %89 = load i32, ptr %16, align 4
  %90 = call ptr (ptr, i32, ptr, i32, i32, i32, ptr, ...) @proto_tree_add_uint_format(ptr noundef %84, i32 noundef %85, ptr noundef %86, i32 noundef %87, i32 noundef 1, i32 noundef %88, ptr noundef @.str.440, i32 noundef %89)
  %91 = load i32, ptr %10, align 4
  %92 = add i32 %91, 1
  store i32 %92, ptr %10, align 4
  br label %93

93:                                               ; preds = %83
  %94 = load i32, ptr %11, align 4
  %95 = add i32 %94, -1
  store i32 %95, ptr %11, align 4
  br label %55, !llvm.loop !29

96:                                               ; preds = %55
  br label %97

97:                                               ; preds = %5, %96, %42
  %98 = load i32, ptr %10, align 4
  call void @llvm.lifetime.end.p0(i64 4, ptr %17) #6
  call void @llvm.lifetime.end.p0(i64 4, ptr %16) #6
  call void @llvm.lifetime.end.p0(i64 4, ptr %15) #6
  call void @llvm.lifetime.end.p0(i64 4, ptr %14) #6
  call void @llvm.lifetime.end.p0(i64 8, ptr %13) #6
  call void @llvm.lifetime.end.p0(i64 4, ptr %12) #6
  call void @llvm.lifetime.end.p0(i64 4, ptr %11) #6
  ret i32 %98
}