; Function Attrs: null_pointer_is_valid sspstrong uwtable
define internal fastcc noundef i32 @add_media_response_to_tree(i32 noundef range(i32 0, 256) %0, i32 noundef range(i32 0, 256) %1, ptr noundef %2, ptr noundef %3, i32 noundef %4) unnamed_addr #0 {
  %trunc = trunc nuw i32 %0 to i8
  switch i8 %trunc, label %.loopexit [
    i8 0, label %6
    i8 6, label %6
    i8 7, label %6
    i8 30, label %6
    i8 31, label %6
    i8 -95, label %6
    i8 -106, label %6
    i8 2, label %15
    i8 3, label %15
    i8 5, label %15
  ]

6:                                                ; preds = %5, %5, %5, %5, %5, %5, %5
  %7 = shl nuw nsw i32 %1, 2
  %8 = load i32, ptr @ett_sbus_data, align 4
  %9 = tail call ptr @proto_tree_add_subtree(ptr noundef %3, ptr noundef %2, i32 noundef %4, i32 noundef %7, i32 noundef %8, ptr noundef null, ptr noundef nonnull @.str.382)
  %.not54 = icmp eq i32 %1, 0
  br i1 %.not54, label %.loopexit, label %.lr.ph51

.lr.ph51:                                         ; preds = %6, %.lr.ph51
  %.13850 = phi i32 [ %12, %.lr.ph51 ], [ %4, %6 ]
  %.04049 = phi i32 [ %13, %.lr.ph51 ], [ %1, %6 ]
  %10 = load i32, ptr @hf_sbus_data_rtc, align 4
  %11 = tail call ptr @proto_tree_add_item(ptr noundef %9, i32 noundef %10, ptr noundef %2, i32 noundef %.13850, i32 noundef 4, i32 noundef 0)
  %12 = add i32 %.13850, 4
  %13 = add nsw i32 %.04049, -1
  %14 = icmp samesign ugt i32 %.04049, 1
  br i1 %14, label %.lr.ph51, label %.loopexit, !llvm.loop !27

15:                                               ; preds = %5, %5, %5
  %16 = add nuw nsw i32 %1, 7
  %17 = lshr i32 %16, 3
  %18 = load i32, ptr @ett_sbus_data, align 4
  %19 = tail call ptr @proto_tree_add_subtree(ptr noundef %3, ptr noundef %2, i32 noundef %4, i32 noundef %17, i32 noundef %18, ptr noundef null, ptr noundef nonnull @.str.382)
  %.not53 = icmp eq i32 %1, 0
  br i1 %.not53, label %.loopexit, label %.lr.ph

.lr.ph:                                           ; preds = %15, %28
  %.248 = phi i32 [ %31, %28 ], [ %4, %15 ]
  %.14147 = phi i32 [ %32, %28 ], [ %17, %15 ]
  %20 = tail call zeroext i8 @tvb_get_uint8(ptr noundef %2, i32 noundef %.248)
  %21 = zext i8 %20 to i32
  br label %22

22:                                               ; preds = %.lr.ph, %22
  %.046 = phi i32 [ 1, %.lr.ph ], [ %26, %22 ]
  %.03545 = phi i32 [ 0, %.lr.ph ], [ %spec.select, %22 ]
  %.03644 = phi i32 [ 1, %.lr.ph ], [ %25, %22 ]
  %.03943 = phi i32 [ 0, %.lr.ph ], [ %27, %22 ]
  %23 = and i32 %.03644, %21
  %.not = icmp eq i32 %23, 0
  %24 = select i1 %.not, i32 0, i32 %.046
  %spec.select = add i32 %24, %.03545
  %25 = shl i32 %.03644, 1
  %26 = mul i32 %.046, 10
  %27 = add nuw nsw i32 %.03943, 1
  %exitcond.not = icmp eq i32 %27, 8
  br i1 %exitcond.not, label %28, label %22, !llvm.loop !28

28:                                               ; preds = %22
  %29 = load i32, ptr @hf_sbus_data_iof, align 4
  %30 = tail call ptr (ptr, i32, ptr, i32, i32, i32, ptr, ...) @proto_tree_add_uint_format(ptr noundef %19, i32 noundef %29, ptr noundef %2, i32 noundef %.248, i32 noundef 1, i32 noundef %spec.select, ptr noundef nonnull @.str.440, i32 noundef %spec.select)
  %31 = add i32 %.248, 1
  %32 = add nsw i32 %.14147, -1
  %33 = icmp sgt i32 %.14147, 1
  br i1 %33, label %.lr.ph, label %.loopexit, !llvm.loop !29

.loopexit:                                        ; preds = %28, %.lr.ph51, %15, %6, %5
  %.037 = phi i32 [ %4, %5 ], [ %4, %6 ], [ %4, %15 ], [ %12, %.lr.ph51 ], [ %31, %28 ]
  ret i32 %.037
}